; Function Attrs: mustprogress uwtable
define dso_local noundef zeroext i1 @_ZN16cmGraphVizWriter19ItemNameFilteredOutERKNSt7__cxx1112basic_stringIcSt11char_traitsIcESaIcEEE(ptr nocapture noundef nonnull readonly align 8 dereferenceable(1043) %0, ptr noundef nonnull align 8 dereferenceable(32) %1) local_unnamed_addr #3 align 2 {
  %3 = tail call noundef i32 @_ZNKSt7__cxx1112basic_stringIcSt11char_traitsIcESaIcEE7compareEPKc(ptr noundef nonnull align 8 dereferenceable(32) %1, ptr noundef nonnull @.str.65) #21
  %4 = icmp eq i32 %3, 0
  br i1 %4, label %.loopexit, label %5

5:                                                ; preds = %2
  %6 = tail call noundef zeroext i1 @_ZN17cmGlobalGenerator16IsReservedTargetERKNSt7__cxx1112basic_stringIcSt11char_traitsIcESaIcEEE(ptr noundef nonnull align 8 dereferenceable(32) %1)
  br i1 %6, label %.loopexit, label %7

7:                                                ; preds = %5
  %8 = getelementptr inbounds i8, ptr %0, i64 944
  %9 = load ptr, ptr %8, align 8
  %10 = getelementptr inbounds i8, ptr %0, i64 952
  %11 = load ptr, ptr %10, align 8
  %.not13 = icmp eq ptr %9, %11
  br i1 %.not13, label %.loopexit, label %.lr.ph

.lr.ph:                                           ; preds = %7, %17
  %.sroa.09.014 = phi ptr [ %18, %17 ], [ %9, %7 ]
  %12 = getelementptr inbounds i8, ptr %.sroa.09.014, i64 544
  %13 = load ptr, ptr %12, align 8
  %.not12 = icmp eq ptr %13, null
  br i1 %.not12, label %17, label %14

14:                                               ; preds = %.lr.ph
  %15 = tail call noundef ptr @_ZNKSt7__cxx1112basic_stringIcSt11char_traitsIcESaIcEE5c_strEv(ptr noundef nonnull align 8 dereferenceable(32) %1) #21
  %16 = tail call noundef zeroext i1 @_ZNK5cmsys17RegularExpression4findEPKcRNS_22RegularExpressionMatchE(ptr noundef nonnull align 8 dereferenceable(556) %.sroa.09.014, ptr noundef %15, ptr noundef nonnull align 8 dereferenceable(520) %.sroa.09.014)
  br i1 %16, label %.loopexit, label %17

17:                                               ; preds = %.lr.ph, %14
  %18 = getelementptr inbounds i8, ptr %.sroa.09.014, i64 560
  %.not = icmp eq ptr %18, %11
  br i1 %.not, label %.loopexit, label %.lr.ph

.loopexit:                                        ; preds = %14, %17, %7, %5, %2
  %.0 = phi i1 [ true, %2 ], [ true, %5 ], [ false, %7 ], [ true, %14 ], [ false, %17 ]
  ret i1 %.0
}